target datalayout = "e-m:e-p270:32:32-p271:32:32-p272:64:64-i64:64-i128:128-f80:128-n8:16:32:64-S128"
target triple = "x86_64-pc-linux-gnu"

; Function Attrs: mustprogress nounwind uwtable
define void @_Z9cleandataPvm(ptr noundef %0, i64 noundef %1) #2 {
  %3 = alloca ptr, align 8
  %4 = alloca i64, align 8
  %5 = alloca ptr, align 8
  %6 = alloca i64, align 8
  store ptr %0, ptr %3, align 8, !tbaa !27
  store i64 %1, ptr %4, align 8, !tbaa !12
  %7 = load ptr, ptr %3, align 8, !tbaa !27
  %8 = icmp eq ptr %7, null
  br i1 %8, label %12, label %9

9:                                                ; preds = %2
  %10 = load i64, ptr %4, align 8, !tbaa !12
  %11 = icmp eq i64 %10, 0
  br i1 %11, label %12, label %13

12:                                               ; preds = %9, %2
  br label %28

13:                                               ; preds = %9
  call void @llvm.lifetime.start.p0(i64 8, ptr %5) #13
  %14 = load ptr, ptr %3, align 8, !tbaa !27
  store ptr %14, ptr %5, align 8, !tbaa !28
  call void @llvm.lifetime.start.p0(i64 8, ptr %6) #13
  store i64 0, ptr %6, align 8, !tbaa !12
  br label %15

15:                                               ; preds = %24, %13
  %16 = load i64, ptr %6, align 8, !tbaa !12
  %17 = load i64, ptr %4, align 8, !tbaa !12
  %18 = icmp ult i64 %16, %17
  br i1 %18, label %20, label %19

19:                                               ; preds = %15
  call void @llvm.lifetime.end.p0(i64 8, ptr %6) #13
  br label %27

20:                                               ; preds = %15
  %21 = load ptr, ptr %5, align 8, !tbaa !28
  %22 = load i64, ptr %6, align 8, !tbaa !12
  %23 = getelementptr inbounds nuw i8, ptr %21, i64 %22
  store volatile i8 0, ptr %23, align 1, !tbaa !30
  br label %24

24:                                               ; preds = %20
  %25 = load i64, ptr %6, align 8, !tbaa !12
  %26 = add i64 %25, 1
  store i64 %26, ptr %6, align 8, !tbaa !12
  br label %15, !llvm.loop !31

27:                                               ; preds = %19
  call void @llvm.lifetime.end.p0(i64 8, ptr %5) #13
  br label %28

28:                                               ; preds = %27, %12
  ret void
}