; Function Attrs: mustprogress nofree norecurse nounwind memory(argmem: readwrite, inaccessiblemem: readwrite) uwtable
define void @_Z9cleandataPvm(ptr noundef %0, i64 noundef %1) local_unnamed_addr #4 {
  %3 = icmp eq ptr %0, null
  %4 = icmp eq i64 %1, 0
  %or.cond = or i1 %3, %4
  br i1 %or.cond, label %.loopexit, label %.preheader

.preheader:                                       ; preds = %2, %.preheader
  %.010 = phi i64 [ %6, %.preheader ], [ 0, %2 ]
  %5 = getelementptr inbounds nuw i8, ptr %0, i64 %.010
  store volatile i8 0, ptr %5, align 1, !tbaa !17
  %6 = add nuw i64 %.010, 1
  %exitcond.not = icmp eq i64 %6, %1
  br i1 %exitcond.not, label %.loopexit, label %.preheader, !llvm.loop !18

.loopexit:                                        ; preds = %.preheader, %2
  ret void
}